target datalayout = "e-m:e-p270:32:32-p271:32:32-p272:64:64-i64:64-i128:128-f80:128-n8:16:32:64-S128"
target triple = "x86_64-unknown-linux-gnu"

%"class.EA::StdC::DateTime" = type <{ i64, i32, [4 x i8] }>

; Function Attrs: mustprogress uwtable
define linkonce_odr dso_local void @_ZN2EA4StdC8DateTimeC2ENS0_9TimeFrameE(ptr noundef nonnull align 8 dereferenceable(12) %this, i32 noundef %timeFrame) unnamed_addr #0 comdat align 2 {
entry:
  %this.addr = alloca ptr, align 8
  %timeFrame.addr = alloca i32, align 4
  store ptr %this, ptr %this.addr, align 8
  store i32 %timeFrame, ptr %timeFrame.addr, align 4
  %this1 = load ptr, ptr %this.addr, align 8
  %mnSeconds = getelementptr inbounds %"class.EA::StdC::DateTime", ptr %this1, i32 0, i32 0
  store i64 0, ptr %mnSeconds, align 8
  %mnNanosecond = getelementptr inbounds %"class.EA::StdC::DateTime", ptr %this1, i32 0, i32 1
  store i32 0, ptr %mnNanosecond, align 8
  %0 = load i32, ptr %timeFrame.addr, align 4
  call void @_ZN2EA4StdC8DateTime3SetENS0_9TimeFrameEb(ptr noundef nonnull align 8 dereferenceable(12) %this1, i32 noundef %0, i1 noundef zeroext true)
  ret void
}

; Function Attrs: mustprogress uwtable
define dso_local noundef i32 @_ZN2EA4StdC10GetCurrentENS0_9ParameterENS0_9TimeFrameE(i32 noundef %parameter, i32 noundef %timeFrame) #0 {
entry:
  %parameter.addr = alloca i32, align 4
  %timeFrame.addr = alloca i32, align 4
  %sDateTime = alloca %"class.EA::StdC::DateTime", align 8
  store i32 %parameter, ptr %parameter.addr, align 4
  store i32 %timeFrame, ptr %timeFrame.addr, align 4
  %0 = load i32, ptr %timeFrame.addr, align 4
  call void @_ZN2EA4StdC8DateTimeC2ENS0_9TimeFrameE(ptr noundef nonnull align 8 dereferenceable(12) %sDateTime, i32 noundef %0)
  %1 = load i32, ptr %parameter.addr, align 4
  %call = call noundef i32 @_ZNK2EA4StdC8DateTime12GetParameterENS0_9ParameterE(ptr noundef nonnull align 8 dereferenceable(12) %sDateTime, i32 noundef %1)
  ret i32 %call
}