; Function Attrs: mustprogress nounwind uwtable
define dso_local noundef i32 @_ZN2EA4StdC10GetCurrentENS0_9ParameterENS0_9TimeFrameE(i32 noundef %parameter, i32 noundef %timeFrame) local_unnamed_addr #3 {
entry:
  %sDateTime = alloca %"class.EA::StdC::DateTime", align 8
  store i64 0, ptr %sDateTime, align 8
  %mnNanosecond.i = getelementptr inbounds nuw i8, ptr %sDateTime, i64 8
  store i32 0, ptr %mnNanosecond.i, align 8
  call void @_ZN2EA4StdC8DateTime3SetENS0_9TimeFrameEb(ptr noundef nonnull align 8 dereferenceable(12) %sDateTime, i32 noundef %timeFrame, i1 noundef zeroext true)
  %call = call noundef i32 @_ZNK2EA4StdC8DateTime12GetParameterENS0_9ParameterE(ptr noundef nonnull align 8 dereferenceable(12) %sDateTime, i32 noundef %parameter)
  ret i32 %call
}